target datalayout = "e-m:e-p270:32:32-p271:32:32-p272:64:64-i64:64-i128:128-f80:128-n8:16:32:64-S128"
target triple = "x86_64-pc-linux-gnu"

%struct.PressureCouplingOptions = type { i32, i32, i32, float, [3 x [3 x float]], [3 x [3 x float]], i32 }

; Function Attrs: mustprogress uwtable
define void @_Z16preserveBoxShapeRK23PressureCouplingOptionsPA3_KfPA3_fS6_(ptr noundef nonnull align 4 dereferenceable(92) %0, ptr noundef %1, ptr noundef %2, ptr noundef %3) #1 {
  %5 = alloca ptr, align 8
  %6 = alloca ptr, align 8
  %7 = alloca ptr, align 8
  %8 = alloca ptr, align 8
  %9 = alloca i32, align 4
  store ptr %0, ptr %5, align 8
  store ptr %1, ptr %6, align 8
  store ptr %2, ptr %7, align 8
  store ptr %3, ptr %8, align 8
  %10 = load ptr, ptr %5, align 8
  %11 = load ptr, ptr %6, align 8
  %12 = call noundef zeroext i1 @_Z22shouldPreserveBoxShapeRK23PressureCouplingOptionsPA3_Kf(ptr noundef nonnull align 4 dereferenceable(92) %10, ptr noundef %11)
  br i1 %12, label %13, label %23

13:                                               ; preds = %4
  %14 = load ptr, ptr %5, align 8
  %15 = getelementptr inbounds %struct.PressureCouplingOptions, ptr %14, i32 0, i32 1
  %16 = load i32, ptr %15, align 4
  %17 = icmp eq i32 %16, 1
  %18 = select i1 %17, i32 2, i32 3
  store i32 %18, ptr %9, align 4
  %19 = load i32, ptr %9, align 4
  %20 = load ptr, ptr %6, align 8
  %21 = load ptr, ptr %7, align 8
  %22 = load ptr, ptr %8, align 8
  call void @_Z10do_box_reliPA3_KfPA3_fS3_b(i32 noundef %19, ptr noundef %20, ptr noundef %21, ptr noundef %22, i1 noundef zeroext false)
  br label %23

23:                                               ; preds = %13, %4
  ret void
}