; Function Attrs: mustprogress uwtable
define void @_Z16preserveBoxShapeRK23PressureCouplingOptionsPA3_KfPA3_fS6_(ptr noundef nonnull align 4 dereferenceable(92) %0, ptr noundef %1, ptr noundef %2, ptr noundef %3) local_unnamed_addr #4 {
  %5 = tail call noundef zeroext i1 @_Z22shouldPreserveBoxShapeRK23PressureCouplingOptionsPA3_Kf(ptr noundef nonnull align 4 dereferenceable(92) %0, ptr noundef %1)
  br i1 %5, label %6, label %11

6:                                                ; preds = %4
  %7 = getelementptr inbounds i8, ptr %0, i64 4
  %8 = load i32, ptr %7, align 4
  %9 = icmp eq i32 %8, 1
  %10 = select i1 %9, i32 2, i32 3
  tail call void @_Z10do_box_reliPA3_KfPA3_fS3_b(i32 noundef %10, ptr noundef %1, ptr noundef %2, ptr noundef %3, i1 noundef zeroext false)
  br label %11

11:                                               ; preds = %6, %4
  ret void
}